
build/main:     file format elf32-littleriscv


Disassembly of section .text:

80000000 <_start>:
80000000:	00000413          	li	s0,0
80000004:	00000117          	auipc	sp,0x0
80000008:	22c12103          	lw	sp,556(sp) # 80000230 <_GLOBAL_OFFSET_TABLE_+0x4>
8000000c:	020000ef          	jal	8000002c <_trm_init>

80000010 <halt>:
80000010:	00050513          	mv	a0,a0
80000014:	00100073          	ebreak
80000018:	0000006f          	j	80000018 <halt+0x8>

8000001c <check>:
8000001c:	00050463          	beqz	a0,80000024 <check+0x8>
80000020:	00008067          	ret
80000024:	00100513          	li	a0,1
80000028:	fe9ff06f          	j	80000010 <halt>

8000002c <_trm_init>:
8000002c:	ff010113          	addi	sp,sp,-16
80000030:	00112623          	sw	ra,12(sp)
80000034:	018000ef          	jal	8000004c <main>
80000038:	00c12083          	lw	ra,12(sp)
8000003c:	01010113          	addi	sp,sp,16
80000040:	fd1ff06f          	j	80000010 <halt>

80000044 <add>:
80000044:	00b50533          	add	a0,a0,a1
80000048:	00008067          	ret

8000004c <main>:
8000004c:	fe010113          	addi	sp,sp,-32
80000050:	01212823          	sw	s2,16(sp)
80000054:	00000917          	auipc	s2,0x0
80000058:	1e492903          	lw	s2,484(s2) # 80000238 <_GLOBAL_OFFSET_TABLE_+0xc>
8000005c:	01312623          	sw	s3,12(sp)
80000060:	01412423          	sw	s4,8(sp)
80000064:	01512223          	sw	s5,4(sp)
80000068:	01612023          	sw	s6,0(sp)
8000006c:	00112e23          	sw	ra,28(sp)
80000070:	00812c23          	sw	s0,24(sp)
80000074:	00912a23          	sw	s1,20(sp)
80000078:	02090993          	addi	s3,s2,32
8000007c:	00000a97          	auipc	s5,0x0
80000080:	1b8aaa83          	lw	s5,440(s5) # 80000234 <_GLOBAL_OFFSET_TABLE_+0x8>
80000084:	00000a13          	li	s4,0
80000088:	04000b13          	li	s6,64
8000008c:	000a8493          	mv	s1,s5
80000090:	00000417          	auipc	s0,0x0
80000094:	1a842403          	lw	s0,424(s0) # 80000238 <_GLOBAL_OFFSET_TABLE_+0xc>
80000098:	00042583          	lw	a1,0(s0)
8000009c:	00092503          	lw	a0,0(s2)
800000a0:	00440413          	addi	s0,s0,4
800000a4:	00448493          	addi	s1,s1,4
800000a8:	f9dff0ef          	jal	80000044 <add>
800000ac:	ffc4a783          	lw	a5,-4(s1)
800000b0:	40a78533          	sub	a0,a5,a0
800000b4:	00153513          	seqz	a0,a0
800000b8:	f65ff0ef          	jal	8000001c <check>
800000bc:	fc899ee3          	bne	s3,s0,80000098 <main+0x4c>
800000c0:	00100513          	li	a0,1
800000c4:	008a0a13          	addi	s4,s4,8
800000c8:	f55ff0ef          	jal	8000001c <check>
800000cc:	020a8a93          	addi	s5,s5,32
800000d0:	00490913          	addi	s2,s2,4
800000d4:	fb6a1ce3          	bne	s4,s6,8000008c <main+0x40>
800000d8:	00100513          	li	a0,1
800000dc:	f41ff0ef          	jal	8000001c <check>
800000e0:	01c12083          	lw	ra,28(sp)
800000e4:	01812403          	lw	s0,24(sp)
800000e8:	01412483          	lw	s1,20(sp)
800000ec:	01012903          	lw	s2,16(sp)
800000f0:	00c12983          	lw	s3,12(sp)
800000f4:	00812a03          	lw	s4,8(sp)
800000f8:	00412a83          	lw	s5,4(sp)
800000fc:	00012b03          	lw	s6,0(sp)
80000100:	00000513          	li	a0,0
80000104:	02010113          	addi	sp,sp,32
80000108:	00008067          	ret
